target datalayout = "e-m:e-p270:32:32-p271:32:32-p272:64:64-i64:64-i128:128-f80:128-n8:16:32:64-S128"
target triple = "x86_64-pc-linux-gnu"

%struct.index_state = type { ptr, i32, i32, i32, i32, ptr, ptr, ptr, %struct.cache_time, i8, i32, %struct.hashmap, %struct.hashmap, %struct.object_id, ptr, ptr, ptr, ptr, ptr, ptr, ptr }
%struct.cache_time = type { i32, i32 }
%struct.hashmap = type { ptr, ptr, ptr, i32, i32, i32, i32, i8 }
%struct.object_id = type { [32 x i8], i32 }
%struct.cache_entry = type { %struct.hashmap_entry, %struct.stat_data, i32, i32, i32, i32, i32, %struct.object_id, [0 x i8] }
%struct.hashmap_entry = type { ptr, i32 }
%struct.stat_data = type { %struct.cache_time, %struct.cache_time, i32, i32, i32, i32, i32 }

; Function Attrs: nounwind uwtable
define dso_local void @fill_fsmonitor_bitmap(ptr noundef %0) #0 {
  %2 = alloca ptr, align 8
  %3 = alloca i32, align 4
  %4 = alloca i32, align 4
  store ptr %0, ptr %2, align 8, !tbaa !4
  call void @llvm.lifetime.start.p0(i64 4, ptr %3) #8
  call void @llvm.lifetime.start.p0(i64 4, ptr %4) #8
  store i32 0, ptr %4, align 4, !tbaa !14
  %5 = call ptr @ewah_new()
  %6 = load ptr, ptr %2, align 8, !tbaa !4
  %7 = getelementptr inbounds nuw %struct.index_state, ptr %6, i32 0, i32 16
  store ptr %5, ptr %7, align 8, !tbaa !35
  store i32 0, ptr %3, align 4, !tbaa !14
  br label %8

8:                                                ; preds = %51, %1
  %9 = load i32, ptr %3, align 4, !tbaa !14
  %10 = load ptr, ptr %2, align 8, !tbaa !4
  %11 = getelementptr inbounds nuw %struct.index_state, ptr %10, i32 0, i32 2
  %12 = load i32, ptr %11, align 4, !tbaa !43
  %13 = icmp ult i32 %9, %12
  br i1 %13, label %14, label %54

14:                                               ; preds = %8
  %15 = load ptr, ptr %2, align 8, !tbaa !4
  %16 = getelementptr inbounds nuw %struct.index_state, ptr %15, i32 0, i32 0
  %17 = load ptr, ptr %16, align 8, !tbaa !48
  %18 = load i32, ptr %3, align 4, !tbaa !14
  %19 = zext i32 %18 to i64
  %20 = getelementptr inbounds nuw ptr, ptr %17, i64 %19
  %21 = load ptr, ptr %20, align 8, !tbaa !49
  %22 = getelementptr inbounds nuw %struct.cache_entry, ptr %21, i32 0, i32 3
  %23 = load i32, ptr %22, align 8, !tbaa !14
  %24 = and i32 %23, 131072
  %25 = icmp ne i32 %24, 0
  br i1 %25, label %26, label %29

26:                                               ; preds = %14
  %27 = load i32, ptr %4, align 4, !tbaa !14
  %28 = add i32 %27, 1
  store i32 %28, ptr %4, align 4, !tbaa !14
  br label %50

29:                                               ; preds = %14
  %30 = load ptr, ptr %2, align 8, !tbaa !4
  %31 = getelementptr inbounds nuw %struct.index_state, ptr %30, i32 0, i32 0
  %32 = load ptr, ptr %31, align 8, !tbaa !48
  %33 = load i32, ptr %3, align 4, !tbaa !14
  %34 = zext i32 %33 to i64
  %35 = getelementptr inbounds nuw ptr, ptr %32, i64 %34
  %36 = load ptr, ptr %35, align 8, !tbaa !49
  %37 = getelementptr inbounds nuw %struct.cache_entry, ptr %36, i32 0, i32 3
  %38 = load i32, ptr %37, align 8, !tbaa !14
  %39 = and i32 %38, 2097152
  %40 = icmp ne i32 %39, 0
  br i1 %40, label %49, label %41

41:                                               ; preds = %29
  %42 = load ptr, ptr %2, align 8, !tbaa !4
  %43 = getelementptr inbounds nuw %struct.index_state, ptr %42, i32 0, i32 16
  %44 = load ptr, ptr %43, align 8, !tbaa !35
  %45 = load i32, ptr %3, align 4, !tbaa !14
  %46 = load i32, ptr %4, align 4, !tbaa !14
  %47 = sub i32 %45, %46
  %48 = zext i32 %47 to i64
  call void @ewah_set(ptr noundef %44, i64 noundef %48)
  br label %49

49:                                               ; preds = %41, %29
  br label %50

50:                                               ; preds = %49, %26
  br label %51

51:                                               ; preds = %50
  %52 = load i32, ptr %3, align 4, !tbaa !14
  %53 = add i32 %52, 1
  store i32 %53, ptr %3, align 4, !tbaa !14
  br label %8, !llvm.loop !51

54:                                               ; preds = %8
  call void @llvm.lifetime.end.p0(i64 4, ptr %4) #8
  call void @llvm.lifetime.end.p0(i64 4, ptr %3) #8
  ret void
}