; Function Attrs: nounwind uwtable
define dso_local void @fill_fsmonitor_bitmap(ptr noundef captures(none) initializes((216, 224)) %0) local_unnamed_addr #0 {
  %2 = tail call ptr @ewah_new() #8
  %3 = getelementptr inbounds nuw i8, ptr %0, i64 216
  store ptr %2, ptr %3, align 8, !tbaa !29
  %4 = getelementptr inbounds nuw i8, ptr %0, i64 12
  %5 = load i32, ptr %4, align 4, !tbaa !34
  %.not15 = icmp eq i32 %5, 0
  br i1 %.not15, label %._crit_edge, label %.lr.ph

.lr.ph:                                           ; preds = %1, %22
  %6 = phi i32 [ %23, %22 ], [ %5, %1 ]
  %indvars.iv = phi i64 [ %indvars.iv.next, %22 ], [ 0, %1 ]
  %.014 = phi i32 [ %.1, %22 ], [ 0, %1 ]
  %7 = load ptr, ptr %0, align 8, !tbaa !37
  %8 = getelementptr inbounds nuw ptr, ptr %7, i64 %indvars.iv
  %9 = load ptr, ptr %8, align 8, !tbaa !38
  %10 = getelementptr inbounds nuw i8, ptr %9, i64 56
  %11 = load i32, ptr %10, align 8, !tbaa !40
  %12 = and i32 %11, 131072
  %.not = icmp eq i32 %12, 0
  br i1 %.not, label %15, label %13

13:                                               ; preds = %.lr.ph
  %14 = add i32 %.014, 1
  br label %22

15:                                               ; preds = %.lr.ph
  %16 = and i32 %11, 2097152
  %.not12 = icmp eq i32 %16, 0
  br i1 %.not12, label %17, label %22

17:                                               ; preds = %15
  %18 = load ptr, ptr %3, align 8, !tbaa !29
  %19 = trunc nuw i64 %indvars.iv to i32
  %20 = sub i32 %19, %.014
  %21 = zext i32 %20 to i64
  tail call void @ewah_set(ptr noundef %18, i64 noundef %21) #8
  %.pre = load i32, ptr %4, align 4, !tbaa !34
  br label %22

22:                                               ; preds = %13, %17, %15
  %23 = phi i32 [ %6, %13 ], [ %6, %15 ], [ %.pre, %17 ]
  %.1 = phi i32 [ %14, %13 ], [ %.014, %15 ], [ %.014, %17 ]
  %indvars.iv.next = add nuw nsw i64 %indvars.iv, 1
  %24 = zext i32 %23 to i64
  %25 = icmp samesign ult i64 %indvars.iv.next, %24
  br i1 %25, label %.lr.ph, label %._crit_edge, !llvm.loop !41

._crit_edge:                                      ; preds = %22, %1
  ret void
}